; Function Attrs: nounwind uwtable
define ptr @l_Std_Time_Internal_Bounded_LE_ofNat_x3f(ptr noundef %0, ptr noundef %1) local_unnamed_addr #1 {
  %3 = ptrtoint ptr %1 to i64
  %4 = and i64 %3, 1
  %.not = icmp eq i64 %4, 0
  br i1 %.not, label %lean_nat_le.exit.thread11, label %5, !prof !10

5:                                                ; preds = %2
  %6 = ptrtoint ptr %0 to i64
  %7 = and i64 %6, 1
  %.not16 = icmp eq i64 %7, 0
  br i1 %.not16, label %lean_nat_le.exit, label %lean_nat_le.exit.thread, !prof !10

lean_nat_le.exit:                                 ; preds = %5
  %8 = tail call zeroext i1 @lean_nat_big_le(ptr noundef %1, ptr noundef %0) #5
  br i1 %8, label %17, label %lean_dec.exit

lean_nat_le.exit.thread11:                        ; preds = %2
  %9 = tail call zeroext i1 @lean_nat_big_le(ptr noundef %1, ptr noundef %0) #5
  br i1 %9, label %lean_nat_to_int.exit, label %10

lean_nat_le.exit.thread:                          ; preds = %5
  %.not17 = icmp ugt ptr %1, %0
  br i1 %.not17, label %lean_dec.exit, label %17

10:                                               ; preds = %lean_nat_le.exit.thread11
  %11 = load i32, ptr %1, align 4, !tbaa !4
  %12 = icmp sgt i32 %11, 1
  br i1 %12, label %13, label %15, !prof !9

13:                                               ; preds = %10
  %14 = add nsw i32 %11, -1
  store i32 %14, ptr %1, align 4, !tbaa !4
  br label %lean_dec.exit

15:                                               ; preds = %10
  %.not.i = icmp eq i32 %11, 0
  br i1 %.not.i, label %lean_dec.exit, label %16

16:                                               ; preds = %15
  tail call void @lean_dec_ref_cold(ptr noundef nonnull %1) #5
  br label %lean_dec.exit

17:                                               ; preds = %lean_nat_le.exit.thread, %lean_nat_le.exit
  %18 = icmp ult ptr %1, inttoptr (i64 4294967296 to ptr)
  br i1 %18, label %lean_nat_to_int.exit, label %19

19:                                               ; preds = %17
  %20 = lshr i64 %3, 1
  %21 = tail call ptr @lean_big_size_t_to_int(i64 noundef %20) #5
  br label %lean_nat_to_int.exit

lean_nat_to_int.exit:                             ; preds = %lean_nat_le.exit.thread11, %17, %19
  %.1.i = phi ptr [ %21, %19 ], [ %1, %17 ], [ %1, %lean_nat_le.exit.thread11 ]
  tail call void @lean_inc_heartbeat() #5
  %22 = tail call noalias ptr @mi_malloc_small(i64 noundef 16) #5
  %23 = icmp eq ptr %22, null
  br i1 %23, label %24, label %lean_alloc_ctor.exit

24:                                               ; preds = %lean_nat_to_int.exit
  tail call void @lean_internal_panic_out_of_memory() #6
  unreachable

lean_alloc_ctor.exit:                             ; preds = %lean_nat_to_int.exit
  %25 = getelementptr inbounds nuw i8, ptr %22, i64 4
  store i32 1, ptr %22, align 4, !tbaa !4
  store i32 16842768, ptr %25, align 4
  %26 = getelementptr inbounds nuw i8, ptr %22, i64 8
  store ptr %.1.i, ptr %26, align 8, !tbaa !12
  br label %lean_dec.exit

lean_dec.exit:                                    ; preds = %lean_nat_le.exit, %lean_nat_le.exit.thread, %13, %15, %16, %lean_alloc_ctor.exit
  %.0 = phi ptr [ %22, %lean_alloc_ctor.exit ], [ inttoptr (i64 1 to ptr), %16 ], [ inttoptr (i64 1 to ptr), %15 ], [ inttoptr (i64 1 to ptr), %13 ], [ inttoptr (i64 1 to ptr), %lean_nat_le.exit.thread ], [ inttoptr (i64 1 to ptr), %lean_nat_le.exit ]
  ret ptr %.0
}